; ModuleID = '29/1320.c'
source_filename = "29/1320.c"
target datalayout = "e-m:e-p270:32:32-p271:32:32-p272:64:64-i64:64-f80:128-n8:16:32:64-S128"
target triple = "x86_64-pc-linux-gnu"

@.str = private unnamed_addr constant [3 x i8] c"%d\00", align 1
@.str.1 = private unnamed_addr constant [7 x i8] c"%.3lf\0A\00", align 1
@.str.2 = private unnamed_addr constant [6 x i8] c"%.3lf\00", align 1

; Function Attrs: noinline nounwind uwtable
define dso_local i32 @main() #0 {
  %1 = alloca i32, align 4
  %2 = alloca i32, align 4
  %3 = alloca i32, align 4
  %4 = alloca i32, align 4
  %5 = alloca i32, align 4
  %6 = alloca [100 x i32], align 16
  %7 = alloca [100 x i32], align 16
  %8 = alloca [100 x i32], align 16
  %9 = alloca double, align 8
  store i32 0, i32* %1, align 4
  %10 = call i32 (i8*, ...) @__isoc99_scanf(i8* getelementptr inbounds ([3 x i8], [3 x i8]* @.str, i64 0, i64 0), i32* %2)
  store i32 0, i32* %3, align 4
  br label %11

11:                                               ; preds = %20, %0
  %12 = load i32, i32* %3, align 4
  %13 = load i32, i32* %2, align 4
  %14 = icmp slt i32 %12, %13
  br i1 %14, label %15, label %23

15:                                               ; preds = %11
  %16 = load i32, i32* %3, align 4
  %17 = sext i32 %16 to i64
  %18 = getelementptr inbounds [100 x i32], [100 x i32]* %6, i64 0, i64 %17
  %19 = call i32 (i8*, ...) @__isoc99_scanf(i8* getelementptr inbounds ([3 x i8], [3 x i8]* @.str, i64 0, i64 0), i32* %18)
  br label %20

20:                                               ; preds = %15
  %21 = load i32, i32* %3, align 4
  %22 = add nsw i32 %21, 1
  store i32 %22, i32* %3, align 4
  br label %11

23:                                               ; preds = %11
  store i32 0, i32* %3, align 4
  br label %24

24:                                               ; preds = %65, %23
  %25 = load i32, i32* %3, align 4
  %26 = load i32, i32* %2, align 4
  %27 = icmp slt i32 %25, %26
  br i1 %27, label %28, label %68

28:                                               ; preds = %24
  %29 = load i32, i32* %3, align 4
  %30 = sext i32 %29 to i64
  %31 = getelementptr inbounds [100 x i32], [100 x i32]* %6, i64 0, i64 %30
  %32 = load i32, i32* %31, align 4
  store i32 %32, i32* %5, align 4
  store i32 1, i32* %4, align 4
  br label %33

33:                                               ; preds = %61, %28
  %34 = load i32, i32* %4, align 4
  %35 = load i32, i32* %5, align 4
  %36 = icmp sle i32 %34, %35
  br i1 %36, label %37, label %64

37:                                               ; preds = %33
  %38 = getelementptr inbounds [100 x i32], [100 x i32]* %7, i64 0, i64 1
  store i32 2, i32* %38, align 4
  %39 = getelementptr inbounds [100 x i32], [100 x i32]* %7, i64 0, i64 2
  store i32 3, i32* %39, align 8
  %40 = load i32, i32* %4, align 4
  %41 = icmp ne i32 %40, 1
  br i1 %41, label %42, label %60

42:                                               ; preds = %37
  %43 = load i32, i32* %4, align 4
  %44 = icmp ne i32 %43, 2
  br i1 %44, label %45, label %60

45:                                               ; preds = %42
  %46 = load i32, i32* %4, align 4
  %47 = sub nsw i32 %46, 1
  %48 = sext i32 %47 to i64
  %49 = getelementptr inbounds [100 x i32], [100 x i32]* %7, i64 0, i64 %48
  %50 = load i32, i32* %49, align 4
  %51 = load i32, i32* %4, align 4
  %52 = sub nsw i32 %51, 2
  %53 = sext i32 %52 to i64
  %54 = getelementptr inbounds [100 x i32], [100 x i32]* %7, i64 0, i64 %53
  %55 = load i32, i32* %54, align 4
  %56 = add nsw i32 %50, %55
  %57 = load i32, i32* %4, align 4
  %58 = sext i32 %57 to i64
  %59 = getelementptr inbounds [100 x i32], [100 x i32]* %7, i64 0, i64 %58
  store i32 %56, i32* %59, align 4
  br label %60

60:                                               ; preds = %45, %42, %37
  br label %61

61:                                               ; preds = %60
  %62 = load i32, i32* %4, align 4
  %63 = add nsw i32 %62, 1
  store i32 %63, i32* %4, align 4
  br label %33

64:                                               ; preds = %33
  br label %65

65:                                               ; preds = %64
  %66 = load i32, i32* %3, align 4
  %67 = add nsw i32 %66, 1
  store i32 %67, i32* %3, align 4
  br label %24

68:                                               ; preds = %24
  store i32 0, i32* %3, align 4
  br label %69

69:                                               ; preds = %110, %68
  %70 = load i32, i32* %3, align 4
  %71 = load i32, i32* %2, align 4
  %72 = icmp slt i32 %70, %71
  br i1 %72, label %73, label %113

73:                                               ; preds = %69
  %74 = load i32, i32* %3, align 4
  %75 = sext i32 %74 to i64
  %76 = getelementptr inbounds [100 x i32], [100 x i32]* %6, i64 0, i64 %75
  %77 = load i32, i32* %76, align 4
  store i32 %77, i32* %5, align 4
  store i32 1, i32* %4, align 4
  br label %78

78:                                               ; preds = %106, %73
  %79 = load i32, i32* %4, align 4
  %80 = load i32, i32* %5, align 4
  %81 = icmp sle i32 %79, %80
  br i1 %81, label %82, label %109

82:                                               ; preds = %78
  %83 = getelementptr inbounds [100 x i32], [100 x i32]* %8, i64 0, i64 1
  store i32 1, i32* %83, align 4
  %84 = getelementptr inbounds [100 x i32], [100 x i32]* %8, i64 0, i64 2
  store i32 2, i32* %84, align 8
  %85 = load i32, i32* %4, align 4
  %86 = icmp ne i32 %85, 1
  br i1 %86, label %87, label %105

87:                                               ; preds = %82
  %88 = load i32, i32* %4, align 4
  %89 = icmp ne i32 %88, 2
  br i1 %89, label %90, label %105

90:                                               ; preds = %87
  %91 = load i32, i32* %4, align 4
  %92 = sub nsw i32 %91, 1
  %93 = sext i32 %92 to i64
  %94 = getelementptr inbounds [100 x i32], [100 x i32]* %8, i64 0, i64 %93
  %95 = load i32, i32* %94, align 4
  %96 = load i32, i32* %4, align 4
  %97 = sub nsw i32 %96, 2
  %98 = sext i32 %97 to i64
  %99 = getelementptr inbounds [100 x i32], [100 x i32]* %8, i64 0, i64 %98
  %100 = load i32, i32* %99, align 4
  %101 = add nsw i32 %95, %100
  %102 = load i32, i32* %4, align 4
  %103 = sext i32 %102 to i64
  %104 = getelementptr inbounds [100 x i32], [100 x i32]* %8, i64 0, i64 %103
  store i32 %101, i32* %104, align 4
  br label %105

105:                                              ; preds = %90, %87, %82
  br label %106

106:                                              ; preds = %105
  %107 = load i32, i32* %4, align 4
  %108 = add nsw i32 %107, 1
  store i32 %108, i32* %4, align 4
  br label %78

109:                                              ; preds = %78
  br label %110

110:                                              ; preds = %109
  %111 = load i32, i32* %3, align 4
  %112 = add nsw i32 %111, 1
  store i32 %112, i32* %3, align 4
  br label %69

113:                                              ; preds = %69
  store i32 0, i32* %3, align 4
  br label %114

114:                                              ; preds = %157, %113
  %115 = load i32, i32* %3, align 4
  %116 = load i32, i32* %2, align 4
  %117 = icmp slt i32 %115, %116
  br i1 %117, label %118, label %160

118:                                              ; preds = %114
  %119 = load i32, i32* %3, align 4
  %120 = sext i32 %119 to i64
  %121 = getelementptr inbounds [100 x i32], [100 x i32]* %6, i64 0, i64 %120
  %122 = load i32, i32* %121, align 4
  store i32 %122, i32* %5, align 4
  store double 0.000000e+00, double* %9, align 8
  store i32 1, i32* %4, align 4
  br label %123

123:                                              ; preds = %142, %118
  %124 = load i32, i32* %4, align 4
  %125 = load i32, i32* %5, align 4
  %126 = icmp sle i32 %124, %125
  br i1 %126, label %127, label %145

127:                                              ; preds = %123
  %128 = load double, double* %9, align 8
  %129 = load i32, i32* %4, align 4
  %130 = sext i32 %129 to i64
  %131 = getelementptr inbounds [100 x i32], [100 x i32]* %7, i64 0, i64 %130
  %132 = load i32, i32* %131, align 4
  %133 = sitofp i32 %132 to double
  %134 = fmul double %133, 1.000000e+00
  %135 = load i32, i32* %4, align 4
  %136 = sext i32 %135 to i64
  %137 = getelementptr inbounds [100 x i32], [100 x i32]* %8, i64 0, i64 %136
  %138 = load i32, i32* %137, align 4
  %139 = sitofp i32 %138 to double
  %140 = fdiv double %134, %139
  %141 = fadd double %128, %140
  store double %141, double* %9, align 8
  br label %142

142:                                              ; preds = %127
  %143 = load i32, i32* %4, align 4
  %144 = add nsw i32 %143, 1
  store i32 %144, i32* %4, align 4
  br label %123

145:                                              ; preds = %123
  %146 = load i32, i32* %3, align 4
  %147 = load i32, i32* %2, align 4
  %148 = sub nsw i32 %147, 1
  %149 = icmp ne i32 %146, %148
  br i1 %149, label %150, label %153

150:                                              ; preds = %145
  %151 = load double, double* %9, align 8
  %152 = call i32 (i8*, ...) @printf(i8* getelementptr inbounds ([7 x i8], [7 x i8]* @.str.1, i64 0, i64 0), double %151)
  br label %156

153:                                              ; preds = %145
  %154 = load double, double* %9, align 8
  %155 = call i32 (i8*, ...) @printf(i8* getelementptr inbounds ([6 x i8], [6 x i8]* @.str.2, i64 0, i64 0), double %154)
  br label %156

156:                                              ; preds = %153, %150
  br label %157

157:                                              ; preds = %156
  %158 = load i32, i32* %3, align 4
  %159 = add nsw i32 %158, 1
  store i32 %159, i32* %3, align 4
  br label %114

160:                                              ; preds = %114
  ret i32 0
}

declare dso_local i32 @__isoc99_scanf(i8*, ...) #1

declare dso_local i32 @printf(i8*, ...) #1


!llvm.module.flags = !{!0}
!llvm.ident = !{!1}

!0 = !{i32 1, !"wchar_size", i32 4}
!1 = !{!"clang version 10.0.0-4ubuntu1 "}
